; Function Attrs: mustprogress uwtable
define hidden noundef zeroext i1 @_ZN13simple_parser10parse_fileEPKcR7obj_refI4expr11ast_managerE(ptr noundef nonnull align 8 dereferenceable(80) %0, ptr noundef %1, ptr noundef nonnull align 8 captures(none) dereferenceable(16) %2) local_unnamed_addr #3 align 2 personality ptr @__gxx_personality_v0 {
  %4 = alloca %"class.std::basic_ifstream", align 8
  %.not = icmp eq ptr %1, null
  br i1 %.not, label %19, label %5

5:                                                ; preds = %3
  call void @llvm.lifetime.start.p0(i64 520, ptr nonnull %4) #20
  call void @_ZNSt14basic_ifstreamIcSt11char_traitsIcEEC1EPKcSt13_Ios_Openmode(ptr noundef nonnull align 8 dereferenceable(256) %4, ptr noundef nonnull %1, i32 noundef 8)
  %6 = load ptr, ptr %4, align 8, !tbaa !3
  %7 = getelementptr i8, ptr %6, i64 -24
  %8 = load i64, ptr %7, align 8
  %9 = getelementptr inbounds i8, ptr %4, i64 %8
  %10 = getelementptr inbounds nuw i8, ptr %9, i64 32
  %11 = load i32, ptr %10, align 8, !tbaa !106
  %12 = and i32 %11, 5
  %.not9 = icmp eq i32 %12, 0
  br i1 %.not9, label %16, label %13

13:                                               ; preds = %5
  invoke void (ptr, ...) @_Z11warning_msgPKcz(ptr noundef nonnull @.str.1, ptr noundef nonnull %1)
          to label %18 unwind label %14

14:                                               ; preds = %16, %13
  %15 = landingpad { ptr, i32 }
          cleanup
  call void @_ZNSt14basic_ifstreamIcSt11char_traitsIcEED1Ev(ptr noundef nonnull align 8 dereferenceable(256) %4) #20
  call void @llvm.lifetime.end.p0(i64 520, ptr nonnull %4) #20
  resume { ptr, i32 } %15

16:                                               ; preds = %5
  %17 = invoke noundef zeroext i1 @_ZN13simple_parser5parseERSiR7obj_refI4expr11ast_managerE(ptr noundef nonnull align 8 dereferenceable(80) %0, ptr noundef nonnull align 8 dereferenceable(16) %4, ptr noundef nonnull align 8 dereferenceable(16) %2)
          to label %18 unwind label %14

18:                                               ; preds = %16, %13
  %.0 = phi i1 [ false, %13 ], [ %17, %16 ]
  call void @_ZNSt14basic_ifstreamIcSt11char_traitsIcEED1Ev(ptr noundef nonnull align 8 dereferenceable(256) %4) #20
  call void @llvm.lifetime.end.p0(i64 520, ptr nonnull %4) #20
  br label %21

19:                                               ; preds = %3
  %20 = tail call noundef zeroext i1 @_ZN13simple_parser5parseERSiR7obj_refI4expr11ast_managerE(ptr noundef nonnull align 8 dereferenceable(80) %0, ptr noundef nonnull align 8 dereferenceable(16) @_ZSt3cin, ptr noundef nonnull align 8 dereferenceable(16) %2)
  br label %21

21:                                               ; preds = %19, %18
  %.1 = phi i1 [ %.0, %18 ], [ %20, %19 ]
  ret i1 %.1
}